; Function Attrs: nounwind uwtable
define internal fastcc void @sprintf_float_value(ptr noundef nonnull %0, float noundef %1, ptr noundef %2) unnamed_addr #0 {
  %4 = fcmp uno float %1, 0.000000e+00
  br i1 %4, label %5, label %7

5:                                                ; preds = %3
  %6 = tail call i32 (ptr, ptr, ...) @pg_sprintf(ptr noundef nonnull %0, ptr noundef nonnull @.str.62, ptr noundef nonnull @.str.63, ptr noundef %2) #14
  br label %19

7:                                                ; preds = %3
  %8 = tail call float @llvm.fabs.f32(float %1)
  %9 = fcmp oeq float %8, 0x7FF0000000000000
  br i1 %9, label %10, label %16

10:                                               ; preds = %7
  %11 = fcmp olt float %1, 0.000000e+00
  br i1 %11, label %12, label %14

12:                                               ; preds = %10
  %13 = tail call i32 (ptr, ptr, ...) @pg_sprintf(ptr noundef nonnull %0, ptr noundef nonnull @.str.62, ptr noundef nonnull @.str.64, ptr noundef %2) #14
  br label %19

14:                                               ; preds = %10
  %15 = tail call i32 (ptr, ptr, ...) @pg_sprintf(ptr noundef nonnull %0, ptr noundef nonnull @.str.62, ptr noundef nonnull @.str.65, ptr noundef %2) #14
  br label %19

16:                                               ; preds = %7
  %17 = fpext float %1 to double
  %18 = tail call i32 (ptr, ptr, ...) @pg_sprintf(ptr noundef nonnull %0, ptr noundef nonnull @.str.66, double noundef %17, ptr noundef %2) #14
  br label %19

19:                                               ; preds = %16, %14, %12, %5
  ret void
}